; Function Attrs: mustprogress uwtable
define hidden noundef nonnull align 8 dereferenceable(8) ptr @_ZNK19OpenColorIO_v2_4dev18FormatMetadataImpl15getChildElementEi(ptr noundef nonnull align 8 dereferenceable(120) %this, i32 noundef %i) unnamed_addr #0 align 2 personality ptr @__gxx_personality_v0 {
entry:
  %cmp = icmp sgt i32 %i, -1
  br i1 %cmp, label %land.lhs.true, label %if.end

land.lhs.true:                                    ; preds = %entry
  %vtable = load ptr, ptr %this, align 8
  %vfn = getelementptr inbounds i8, ptr %vtable, i64 72
  %0 = load ptr, ptr %vfn, align 8
  %call = tail call noundef i32 %0(ptr noundef nonnull align 8 dereferenceable(120) %this) #17
  %cmp2 = icmp sgt i32 %call, %i
  br i1 %cmp2, label %if.then, label %if.end

if.then:                                          ; preds = %land.lhs.true
  %m_elements = getelementptr inbounds i8, ptr %this, i64 96
  %conv = zext nneg i32 %i to i64
  %1 = load ptr, ptr %m_elements, align 8
  %add.ptr.i = getelementptr inbounds %"class.OpenColorIO_v2_4dev::FormatMetadataImpl", ptr %1, i64 %conv
  ret ptr %add.ptr.i

if.end:                                           ; preds = %land.lhs.true, %entry
  %exception = tail call ptr @__cxa_allocate_exception(i64 16) #17
  invoke void @_ZN19OpenColorIO_v2_4dev9ExceptionC1EPKc(ptr noundef nonnull align 8 dereferenceable(16) %exception, ptr noundef nonnull @.str.19)
          to label %invoke.cont unwind label %lpad

invoke.cont:                                      ; preds = %if.end
  tail call void @__cxa_throw(ptr nonnull %exception, ptr nonnull @_ZTIN19OpenColorIO_v2_4dev9ExceptionE, ptr nonnull @_ZN19OpenColorIO_v2_4dev9ExceptionD1Ev) #18
  unreachable

lpad:                                             ; preds = %if.end
  %2 = landingpad { ptr, i32 }
          cleanup
  tail call void @__cxa_free_exception(ptr %exception) #17
  resume { ptr, i32 } %2
}